; Function Attrs: mustprogress nounwind uwtable
define dso_local void @_ZNK4llvm2cl6parserINSt7__cxx1112basic_stringIcSt11char_traitsIcESaIcEEEE15printOptionDiffERKNS0_6OptionENS_9StringRefERKNS0_11OptionValueIS7_EEm(ptr nocapture nonnull readnone align 8 %0, ptr nocapture noundef nonnull readonly align 8 dereferenceable(128) %1, ptr %2, i64 %3, ptr noundef nonnull align 8 dereferenceable(48) %4, i64 noundef %5) local_unnamed_addr #0 align 2 {
  %7 = alloca %"class.(anonymous namespace)::PrintArg", align 8
  call void @llvm.lifetime.start.p0(i64 24, ptr nonnull %7)
  %8 = tail call noundef nonnull align 8 dereferenceable(96) ptr @_ZN4llvm4outsEv() #25
  %9 = getelementptr inbounds nuw i8, ptr %1, i64 16
  %.sroa.0.0.copyload.i = load ptr, ptr %9, align 8
  %.sroa.2.0..sroa_idx.i = getelementptr inbounds i8, ptr %1, i64 24
  %.sroa.2.0.copyload.i = load i64, ptr %.sroa.2.0..sroa_idx.i, align 8
  store ptr %.sroa.0.0.copyload.i, ptr %7, align 8
  %.sroa.2.0..sroa_idx.i.i = getelementptr inbounds i8, ptr %7, i64 8
  store i64 %.sroa.2.0.copyload.i, ptr %.sroa.2.0..sroa_idx.i.i, align 8
  %10 = getelementptr inbounds nuw i8, ptr %7, i64 16
  store i64 2, ptr %10, align 8
  %11 = call fastcc noundef nonnull align 8 dereferenceable(48) ptr @_ZN12_GLOBAL__N_1lsERN4llvm11raw_ostreamERKNS_8PrintArgE(ptr noundef nonnull align 8 dereferenceable(48) %8, ptr noundef nonnull align 8 dereferenceable(24) %7)
  %12 = tail call noundef nonnull align 8 dereferenceable(96) ptr @_ZN4llvm4outsEv() #25
  %13 = load i64, ptr %.sroa.2.0..sroa_idx.i, align 8
  %14 = sub i64 %5, %13
  %15 = trunc i64 %14 to i32
  %16 = tail call noundef nonnull align 8 dereferenceable(48) ptr @_ZN4llvm11raw_ostream6indentEj(ptr noundef nonnull align 8 dereferenceable(48) %12, i32 noundef %15) #25
  call void @llvm.lifetime.end.p0(i64 24, ptr nonnull %7)
  %17 = tail call noundef nonnull align 8 dereferenceable(96) ptr @_ZN4llvm4outsEv() #25
  %18 = getelementptr inbounds nuw i8, ptr %17, i64 24
  %19 = load ptr, ptr %18, align 8
  %20 = getelementptr inbounds nuw i8, ptr %17, i64 32
  %21 = load ptr, ptr %20, align 8
  %22 = ptrtoint ptr %19 to i64
  %23 = ptrtoint ptr %21 to i64
  %24 = sub i64 %22, %23
  %25 = icmp ult i64 %24, 2
  br i1 %25, label %26, label %28

26:                                               ; preds = %6
  %27 = tail call noundef nonnull align 8 dereferenceable(48) ptr @_ZN4llvm11raw_ostream5writeEPKcm(ptr noundef nonnull align 8 dereferenceable(48) %17, ptr noundef nonnull @.str.28, i64 noundef 2) #25
  %.phi.trans.insert = getelementptr inbounds nuw i8, ptr %27, i64 32
  %.pre = load ptr, ptr %.phi.trans.insert, align 8
  br label %_ZN4llvm11raw_ostreamlsEPKc.exit

28:                                               ; preds = %6
  store i16 8253, ptr %21, align 1
  %29 = load ptr, ptr %20, align 8
  %30 = getelementptr inbounds i8, ptr %29, i64 2
  store ptr %30, ptr %20, align 8
  br label %_ZN4llvm11raw_ostreamlsEPKc.exit

_ZN4llvm11raw_ostreamlsEPKc.exit:                 ; preds = %26, %28
  %31 = phi ptr [ %.pre, %26 ], [ %30, %28 ]
  %.0.i.i = phi ptr [ %27, %26 ], [ %17, %28 ]
  %32 = getelementptr inbounds nuw i8, ptr %.0.i.i, i64 24
  %33 = load ptr, ptr %32, align 8
  %34 = getelementptr inbounds nuw i8, ptr %.0.i.i, i64 32
  %35 = ptrtoint ptr %33 to i64
  %36 = ptrtoint ptr %31 to i64
  %37 = sub i64 %35, %36
  %38 = icmp ugt i64 %3, %37
  br i1 %38, label %39, label %41

39:                                               ; preds = %_ZN4llvm11raw_ostreamlsEPKc.exit
  %40 = tail call noundef nonnull align 8 dereferenceable(48) ptr @_ZN4llvm11raw_ostream5writeEPKcm(ptr noundef nonnull align 8 dereferenceable(48) %.0.i.i, ptr noundef %2, i64 noundef %3) #25
  br label %_ZN4llvm11raw_ostreamlsENS_9StringRefE.exit

41:                                               ; preds = %_ZN4llvm11raw_ostreamlsEPKc.exit
  %.not.i = icmp eq i64 %3, 0
  br i1 %.not.i, label %_ZN4llvm11raw_ostreamlsENS_9StringRefE.exit.thread, label %42

42:                                               ; preds = %41
  tail call void @llvm.memcpy.p0.p0.i64(ptr align 1 %31, ptr align 1 %2, i64 %3, i1 false)
  %43 = load ptr, ptr %34, align 8
  %44 = getelementptr inbounds i8, ptr %43, i64 %3
  store ptr %44, ptr %34, align 8
  br label %_ZN4llvm11raw_ostreamlsENS_9StringRefE.exit

_ZN4llvm11raw_ostreamlsENS_9StringRefE.exit:      ; preds = %39, %42
  %45 = icmp ult i64 %3, 8
  br i1 %45, label %_ZN4llvm11raw_ostreamlsENS_9StringRefE.exit.thread, label %48

_ZN4llvm11raw_ostreamlsENS_9StringRefE.exit.thread: ; preds = %41, %_ZN4llvm11raw_ostreamlsENS_9StringRefE.exit
  %46 = trunc i64 %3 to i32
  %47 = sub nuw nsw i32 8, %46
  br label %48

48:                                               ; preds = %_ZN4llvm11raw_ostreamlsENS_9StringRefE.exit, %_ZN4llvm11raw_ostreamlsENS_9StringRefE.exit.thread
  %49 = phi i32 [ %47, %_ZN4llvm11raw_ostreamlsENS_9StringRefE.exit.thread ], [ 0, %_ZN4llvm11raw_ostreamlsENS_9StringRefE.exit ]
  %50 = tail call noundef nonnull align 8 dereferenceable(96) ptr @_ZN4llvm4outsEv() #25
  %51 = tail call noundef nonnull align 8 dereferenceable(48) ptr @_ZN4llvm11raw_ostream6indentEj(ptr noundef nonnull align 8 dereferenceable(48) %50, i32 noundef %49) #25
  %52 = getelementptr inbounds nuw i8, ptr %51, i64 24
  %53 = load ptr, ptr %52, align 8
  %54 = getelementptr inbounds nuw i8, ptr %51, i64 32
  %55 = load ptr, ptr %54, align 8
  %56 = ptrtoint ptr %53 to i64
  %57 = ptrtoint ptr %55 to i64
  %58 = sub i64 %56, %57
  %59 = icmp ult i64 %58, 11
  br i1 %59, label %60, label %62

60:                                               ; preds = %48
  %61 = tail call noundef nonnull align 8 dereferenceable(48) ptr @_ZN4llvm11raw_ostream5writeEPKcm(ptr noundef nonnull align 8 dereferenceable(48) %51, ptr noundef nonnull @.str.29, i64 noundef 11) #25
  br label %_ZN4llvm11raw_ostreamlsEPKc.exit7

62:                                               ; preds = %48
  tail call void @llvm.memcpy.p0.p0.i64(ptr noundef nonnull align 1 dereferenceable(11) %55, ptr noundef nonnull align 1 dereferenceable(11) @.str.29, i64 11, i1 false)
  %63 = load ptr, ptr %54, align 8
  %64 = getelementptr inbounds i8, ptr %63, i64 11
  store ptr %64, ptr %54, align 8
  br label %_ZN4llvm11raw_ostreamlsEPKc.exit7

_ZN4llvm11raw_ostreamlsEPKc.exit7:                ; preds = %60, %62
  %65 = getelementptr inbounds nuw i8, ptr %4, i64 40
  %66 = load i8, ptr %65, align 8
  %67 = trunc i8 %66 to i1
  %68 = tail call noundef nonnull align 8 dereferenceable(96) ptr @_ZN4llvm4outsEv() #25
  br i1 %67, label %69, label %74

69:                                               ; preds = %_ZN4llvm11raw_ostreamlsEPKc.exit7
  %70 = getelementptr inbounds nuw i8, ptr %4, i64 8
  %71 = tail call noundef ptr @_ZNKSt7__cxx1112basic_stringIcSt11char_traitsIcESaIcEE4dataEv(ptr noundef nonnull align 8 dereferenceable(32) %70) #25
  %72 = tail call noundef i64 @_ZNKSt7__cxx1112basic_stringIcSt11char_traitsIcESaIcEE6lengthEv(ptr noundef nonnull align 8 dereferenceable(32) %70) #25
  %73 = tail call noundef nonnull align 8 dereferenceable(48) ptr @_ZN4llvm11raw_ostream5writeEPKcm(ptr noundef nonnull align 8 dereferenceable(48) %68, ptr noundef %71, i64 noundef %72) #25
  br label %_ZN4llvm11raw_ostreamlsEPKc.exit10

74:                                               ; preds = %_ZN4llvm11raw_ostreamlsEPKc.exit7
  %75 = getelementptr inbounds nuw i8, ptr %68, i64 24
  %76 = load ptr, ptr %75, align 8
  %77 = getelementptr inbounds nuw i8, ptr %68, i64 32
  %78 = load ptr, ptr %77, align 8
  %79 = ptrtoint ptr %76 to i64
  %80 = ptrtoint ptr %78 to i64
  %81 = sub i64 %79, %80
  %82 = icmp ult i64 %81, 12
  br i1 %82, label %83, label %85

83:                                               ; preds = %74
  %84 = tail call noundef nonnull align 8 dereferenceable(48) ptr @_ZN4llvm11raw_ostream5writeEPKcm(ptr noundef nonnull align 8 dereferenceable(48) %68, ptr noundef nonnull @.str.32, i64 noundef 12) #25
  br label %_ZN4llvm11raw_ostreamlsEPKc.exit10

85:                                               ; preds = %74
  tail call void @llvm.memcpy.p0.p0.i64(ptr noundef nonnull align 1 dereferenceable(12) %78, ptr noundef nonnull align 1 dereferenceable(12) @.str.32, i64 12, i1 false)
  %86 = load ptr, ptr %77, align 8
  %87 = getelementptr inbounds i8, ptr %86, i64 12
  store ptr %87, ptr %77, align 8
  br label %_ZN4llvm11raw_ostreamlsEPKc.exit10

_ZN4llvm11raw_ostreamlsEPKc.exit10:               ; preds = %85, %83, %69
  %88 = tail call noundef nonnull align 8 dereferenceable(96) ptr @_ZN4llvm4outsEv() #25
  %89 = getelementptr inbounds nuw i8, ptr %88, i64 24
  %90 = load ptr, ptr %89, align 8
  %91 = getelementptr inbounds nuw i8, ptr %88, i64 32
  %92 = load ptr, ptr %91, align 8
  %93 = ptrtoint ptr %90 to i64
  %94 = ptrtoint ptr %92 to i64
  %95 = sub i64 %93, %94
  %96 = icmp ult i64 %95, 2
  br i1 %96, label %97, label %99

97:                                               ; preds = %_ZN4llvm11raw_ostreamlsEPKc.exit10
  %98 = tail call noundef nonnull align 8 dereferenceable(48) ptr @_ZN4llvm11raw_ostream5writeEPKcm(ptr noundef nonnull align 8 dereferenceable(48) %88, ptr noundef nonnull @.str.30, i64 noundef 2) #25
  br label %_ZN4llvm11raw_ostreamlsEPKc.exit13

99:                                               ; preds = %_ZN4llvm11raw_ostreamlsEPKc.exit10
  store i16 2601, ptr %92, align 1
  %100 = load ptr, ptr %91, align 8
  %101 = getelementptr inbounds i8, ptr %100, i64 2
  store ptr %101, ptr %91, align 8
  br label %_ZN4llvm11raw_ostreamlsEPKc.exit13

_ZN4llvm11raw_ostreamlsEPKc.exit13:               ; preds = %97, %99
  ret void
}